; Function Attrs: mustprogress uwtable
define hidden void @_ZN3sat12local_search13init_goodvarsEv(ptr noundef nonnull align 8 dereferenceable(232) %0) local_unnamed_addr #3 align 2 {
  %2 = getelementptr inbounds nuw i8, ptr %0, i64 112
  %3 = load ptr, ptr %2, align 8, !tbaa !9
  %.not.i = icmp eq ptr %3, null
  br i1 %.not.i, label %_ZN6vectorIjLb0EjE5resetEv.exit, label %4

4:                                                ; preds = %1
  %5 = getelementptr inbounds i8, ptr %3, i64 -4
  store i32 0, ptr %5, align 4, !tbaa !13
  br label %_ZN6vectorIjLb0EjE5resetEv.exit

_ZN6vectorIjLb0EjE5resetEv.exit:                  ; preds = %1, %4
  %6 = getelementptr inbounds nuw i8, ptr %0, i64 40
  br label %7

7:                                                ; preds = %39, %_ZN6vectorIjLb0EjE5resetEv.exit
  %8 = phi ptr [ %40, %39 ], [ %3, %_ZN6vectorIjLb0EjE5resetEv.exit ]
  %indvars.iv = phi i64 [ %indvars.iv.next, %39 ], [ 0, %_ZN6vectorIjLb0EjE5resetEv.exit ]
  %9 = load ptr, ptr %6, align 8, !tbaa !49
  %10 = icmp eq ptr %9, null
  br i1 %10, label %_ZNK3sat12local_search8num_varsEv.exit, label %11

11:                                               ; preds = %7
  %12 = getelementptr inbounds i8, ptr %9, i64 -4
  %13 = load i32, ptr %12, align 4, !tbaa !13
  %14 = add i32 %13, -1
  %15 = zext i32 %14 to i64
  br label %_ZNK3sat12local_search8num_varsEv.exit

_ZNK3sat12local_search8num_varsEv.exit:           ; preds = %7, %11
  %.0.i.i = phi i64 [ %15, %11 ], [ 4294967295, %7 ]
  %16 = icmp samesign ult i64 %indvars.iv, %.0.i.i
  br i1 %16, label %18, label %17

17:                                               ; preds = %_ZNK3sat12local_search8num_varsEv.exit
  ret void

18:                                               ; preds = %_ZNK3sat12local_search8num_varsEv.exit
  %19 = getelementptr inbounds nuw %"struct.sat::local_search::var_info", ptr %9, i64 %indvars.iv, i32 6
  %20 = load i32, ptr %19, align 4, !tbaa !86
  %21 = icmp sgt i32 %20, 0
  br i1 %21, label %22, label %39

22:                                               ; preds = %18
  %23 = getelementptr inbounds nuw %"struct.sat::local_search::var_info", ptr %9, i64 %indvars.iv, i32 5
  store i8 1, ptr %23, align 1, !tbaa !61
  %24 = icmp eq ptr %8, null
  br i1 %24, label %31, label %25

25:                                               ; preds = %22
  %26 = getelementptr inbounds i8, ptr %8, i64 -4
  %27 = load i32, ptr %26, align 4, !tbaa !13
  %28 = getelementptr inbounds i8, ptr %8, i64 -8
  %29 = load i32, ptr %28, align 4, !tbaa !13
  %30 = icmp eq i32 %27, %29
  br i1 %30, label %31, label %_ZN6vectorIjLb0EjE9push_backERKj.exit

31:                                               ; preds = %25, %22
  tail call void @_ZN6vectorIjLb0EjE13expand_vectorEv(ptr noundef nonnull align 8 dereferenceable(8) %2)
  %.pre.i = load ptr, ptr %2, align 8, !tbaa !9
  %.phi.trans.insert.i = getelementptr inbounds i8, ptr %.pre.i, i64 -4
  %.pre2.i = load i32, ptr %.phi.trans.insert.i, align 4, !tbaa !13
  br label %_ZN6vectorIjLb0EjE9push_backERKj.exit

_ZN6vectorIjLb0EjE9push_backERKj.exit:            ; preds = %25, %31
  %32 = phi ptr [ %.pre.i, %31 ], [ %8, %25 ]
  %33 = phi i32 [ %.pre2.i, %31 ], [ %27, %25 ]
  %34 = getelementptr inbounds i8, ptr %32, i64 -4
  %35 = zext i32 %33 to i64
  %36 = getelementptr inbounds nuw i32, ptr %32, i64 %35
  %37 = trunc nuw i64 %indvars.iv to i32
  store i32 %37, ptr %36, align 4, !tbaa !13
  %38 = add i32 %33, 1
  store i32 %38, ptr %34, align 4, !tbaa !13
  br label %39

39:                                               ; preds = %18, %_ZN6vectorIjLb0EjE9push_backERKj.exit
  %40 = phi ptr [ %8, %18 ], [ %32, %_ZN6vectorIjLb0EjE9push_backERKj.exit ]
  %indvars.iv.next = add nuw nsw i64 %indvars.iv, 1
  br label %7, !llvm.loop !88
}